target datalayout = "e-m:e-p270:32:32-p271:32:32-p272:64:64-i64:64-i128:128-f80:128-n8:16:32:64-S128"
target triple = "x86_64-pc-linux-gnu"

%"class.testing::UnitTest" = type { ptr, [8 x i8], ptr }

@_ZTVN7testing8UnitTestE = hidden unnamed_addr constant { [4 x ptr] } { [4 x ptr] [ptr null, ptr @_ZTIN7testing8UnitTestE, ptr @_ZN7testing8UnitTestD1Ev, ptr @_ZN7testing8UnitTestD0Ev] }, align 8
@_ZN7testing8internal12UnitTestImplC1EPNS_8UnitTestE = hidden unnamed_addr alias void (ptr, ptr), ptr @_ZN7testing8internal12UnitTestImplC2EPNS_8UnitTestE

; Function Attrs: mustprogress nounwind uwtable
define linkonce_odr hidden void @_ZN7testing8internal5MutexC2Ev(ptr noundef nonnull align 1 dereferenceable(1) %0) unnamed_addr #6 comdat align 2 {
  %2 = alloca ptr, align 8
  store ptr %0, ptr %2, align 8
  ret void
}

; Function Attrs: mustprogress uwtable
define hidden void @_ZN7testing8UnitTestC2Ev(ptr noundef nonnull align 8 dereferenceable(24) %0) unnamed_addr #4 align 2 personality ptr @__gxx_personality_v0 {
  %2 = alloca ptr, align 8
  %3 = alloca ptr, align 8
  %4 = alloca i32, align 4
  store ptr %0, ptr %2, align 8
  %5 = load ptr, ptr %2, align 8
  store ptr getelementptr inbounds inrange(-16, 16) ({ [4 x ptr] }, ptr @_ZTVN7testing8UnitTestE, i32 0, i32 0, i32 2), ptr %5, align 8
  %6 = getelementptr inbounds i8, ptr %5, i64 8
  call void @_ZN7testing8internal5MutexC2Ev(ptr noundef nonnull align 1 dereferenceable(1) %6)
  %7 = call noalias noundef nonnull ptr @_Znwm(i64 noundef 408) #29
  invoke void @_ZN7testing8internal12UnitTestImplC1EPNS_8UnitTestE(ptr noundef nonnull align 8 dereferenceable(401) %7, ptr noundef %5)
          to label %8 unwind label %10

8:                                                ; preds = %1
  %9 = getelementptr inbounds nuw %"class.testing::UnitTest", ptr %5, i32 0, i32 2
  store ptr %7, ptr %9, align 8
  ret void

10:                                               ; preds = %1
  %11 = landingpad { ptr, i32 }
          cleanup
  %12 = extractvalue { ptr, i32 } %11, 0
  store ptr %12, ptr %3, align 8
  %13 = extractvalue { ptr, i32 } %11, 1
  store i32 %13, ptr %4, align 4
  call void @_ZdlPv(ptr noundef %7) #30
  br label %14

14:                                               ; preds = %10
  %15 = load ptr, ptr %3, align 8
  %16 = load i32, ptr %4, align 4
  %17 = insertvalue { ptr, i32 } poison, ptr %15, 0
  %18 = insertvalue { ptr, i32 } %17, i32 %16, 1
  resume { ptr, i32 } %18
}