; Function Attrs: mustprogress uwtable
define hidden void @_ZN7testing8UnitTestC2Ev(ptr noundef nonnull align 8 dereferenceable(24) initializes((0, 8)) %0) unnamed_addr #3 align 2 personality ptr @__gxx_personality_v0 {
  store ptr getelementptr inbounds nuw inrange(-16, 16) (i8, ptr @_ZTVN7testing8UnitTestE, i64 16), ptr %0, align 8
  %2 = tail call noalias noundef nonnull dereferenceable(408) ptr @_Znwm(i64 noundef 408) #55
  invoke void @_ZN7testing8internal12UnitTestImplC2EPNS_8UnitTestE(ptr noundef nonnull align 8 dereferenceable(401) %2, ptr noundef nonnull %0)
          to label %3 unwind label %5

3:                                                ; preds = %1
  %4 = getelementptr inbounds nuw i8, ptr %0, i64 16
  store ptr %2, ptr %4, align 8
  ret void

5:                                                ; preds = %1
  %6 = landingpad { ptr, i32 }
          cleanup
  tail call void @_ZdlPv(ptr noundef nonnull %2) #54
  resume { ptr, i32 } %6
}